target datalayout = "e-m:e-p270:32:32-p271:32:32-p272:64:64-i64:64-i128:128-f80:128-n8:16:32:64-S128"
target triple = "x86_64-pc-linux-gnu"

%struct.rb_code_location_struct = type { %struct.rb_code_position_struct, %struct.rb_code_position_struct }
%struct.rb_code_position_struct = type { i32, i32 }
%struct.rb_iseq_struct = type { i64, i64, ptr, %union.anon.13 }
%union.anon.13 = type { %struct.anon.14 }
%struct.anon.14 = type { i64, i32 }
%struct.rb_iseq_constant_body = type { i32, i32, ptr, %struct.anon.16, %struct.rb_iseq_location_struct, %struct.iseq_insn_info, ptr, ptr, ptr, ptr, ptr, ptr, %struct.anon.17, i32, i32, i32, i32, i32, i32, i32, i32, i8, %union.anon.18, ptr, ptr, ptr, i64, ptr, i64, ptr, i64 }
%struct.anon.16 = type { %struct.anon, i32, i32, i32, i32, i32, i32, i32, ptr, ptr }
%struct.anon = type { i16, [2 x i8] }
%struct.rb_iseq_location_struct = type { i64, i64, i64, i32, i32, %struct.rb_code_location_struct }
%struct.iseq_insn_info = type { ptr, ptr, i32, ptr }
%struct.anon.17 = type { i64, i64, i64, i64, ptr }
%union.anon.18 = type { ptr }
%struct.succ_index_table = type { [6 x i64], [0 x %struct.succ_dict_block] }
%struct.succ_dict_block = type { i32, i64, [8 x i64] }

; Function Attrs: inlinehint nounwind sspstrong uwtable
define internal i32 @rb_popcount64(i64 noundef %0) #5 {
  %2 = alloca i64, align 8
  store i64 %0, ptr %2, align 8, !tbaa !17
  %3 = load i64, ptr %2, align 8, !tbaa !17
  %4 = call i64 @llvm.ctpop.i64(i64 %3)
  %5 = trunc i64 %4 to i32
  ret i32 %5
}

; Function Attrs: nounwind sspstrong uwtable
define internal ptr @succ_index_table_create(i32 noundef %0, ptr noundef %1, i32 noundef %2) #0 {
  %4 = alloca i32, align 4
  %5 = alloca ptr, align 8
  %6 = alloca i32, align 4
  %7 = alloca i32, align 4
  %8 = alloca i32, align 4
  %9 = alloca ptr, align 8
  %10 = alloca i32, align 4
  %11 = alloca i32, align 4
  %12 = alloca i32, align 4
  %13 = alloca i32, align 4
  %14 = alloca ptr, align 8
  %15 = alloca i32, align 4
  %16 = alloca i64, align 8
  store i32 %0, ptr %4, align 4, !tbaa !56
  store ptr %1, ptr %5, align 8, !tbaa !139
  store i32 %2, ptr %6, align 4, !tbaa !56
  call void @llvm.lifetime.start.p0(i64 4, ptr %7) #24
  %17 = load i32, ptr %4, align 4, !tbaa !56
  %18 = icmp slt i32 %17, 54
  br i1 %18, label %19, label %22

19:                                               ; preds = %3
  %20 = load i32, ptr %4, align 4, !tbaa !56
  %21 = add i32 %20, 8
  br label %23

22:                                               ; preds = %3
  br label %23

23:                                               ; preds = %22, %19
  %24 = phi i32 [ %21, %19 ], [ 54, %22 ]
  %25 = sdiv i32 %24, 9
  store i32 %25, ptr %7, align 4, !tbaa !56
  call void @llvm.lifetime.start.p0(i64 4, ptr %8) #24
  %26 = load i32, ptr %4, align 4, !tbaa !56
  %27 = icmp slt i32 %26, 54
  br i1 %27, label %28, label %29

28:                                               ; preds = %23
  br label %33

29:                                               ; preds = %23
  %30 = load i32, ptr %4, align 4, !tbaa !56
  %31 = sub i32 %30, 54
  %32 = add i32 %31, 511
  br label %33

33:                                               ; preds = %29, %28
  %34 = phi i32 [ 0, %28 ], [ %32, %29 ]
  %35 = sdiv i32 %34, 512
  store i32 %35, ptr %8, align 4, !tbaa !56
  call void @llvm.lifetime.start.p0(i64 8, ptr %9) #24
  %36 = load i32, ptr %7, align 4, !tbaa !56
  %37 = sext i32 %36 to i64
  %38 = load i32, ptr %8, align 4, !tbaa !56
  %39 = sext i32 %38 to i64
  %40 = call noalias ptr @rb_xcalloc_mul_add_mul(i64 noundef %37, i64 noundef 8, i64 noundef %39, i64 noundef 80)
  store ptr %40, ptr %9, align 8, !tbaa !140
  call void @llvm.lifetime.start.p0(i64 4, ptr %10) #24
  call void @llvm.lifetime.start.p0(i64 4, ptr %11) #24
  call void @llvm.lifetime.start.p0(i64 4, ptr %12) #24
  call void @llvm.lifetime.start.p0(i64 4, ptr %13) #24
  store i32 0, ptr %13, align 4, !tbaa !56
  store i32 0, ptr %11, align 4, !tbaa !56
  br label %41

41:                                               ; preds = %85, %33
  %42 = load i32, ptr %11, align 4, !tbaa !56
  %43 = load i32, ptr %7, align 4, !tbaa !56
  %44 = icmp slt i32 %42, %43
  br i1 %44, label %45, label %88

45:                                               ; preds = %41
  store i32 0, ptr %10, align 4, !tbaa !56
  br label %46

46:                                               ; preds = %81, %45
  %47 = load i32, ptr %10, align 4, !tbaa !56
  %48 = icmp slt i32 %47, 9
  br i1 %48, label %49, label %84

49:                                               ; preds = %46
  %50 = load i32, ptr %13, align 4, !tbaa !56
  %51 = load i32, ptr %6, align 4, !tbaa !56
  %52 = icmp slt i32 %50, %51
  br i1 %52, label %53, label %67

53:                                               ; preds = %49
  %54 = load ptr, ptr %5, align 8, !tbaa !139
  %55 = load i32, ptr %13, align 4, !tbaa !56
  %56 = sext i32 %55 to i64
  %57 = getelementptr i32, ptr %54, i64 %56
  %58 = load i32, ptr %57, align 4, !tbaa !56
  %59 = load i32, ptr %11, align 4, !tbaa !56
  %60 = mul i32 %59, 9
  %61 = load i32, ptr %10, align 4, !tbaa !56
  %62 = add i32 %60, %61
  %63 = icmp eq i32 %58, %62
  br i1 %63, label %64, label %67

64:                                               ; preds = %53
  %65 = load i32, ptr %13, align 4, !tbaa !56
  %66 = add i32 %65, 1
  store i32 %66, ptr %13, align 4, !tbaa !56
  br label %67

67:                                               ; preds = %64, %53, %49
  %68 = load i32, ptr %13, align 4, !tbaa !56
  %69 = sext i32 %68 to i64
  %70 = load i32, ptr %10, align 4, !tbaa !56
  %71 = mul i32 7, %70
  %72 = zext i32 %71 to i64
  %73 = shl i64 %69, %72
  %74 = load ptr, ptr %9, align 8, !tbaa !140
  %75 = getelementptr inbounds nuw %struct.succ_index_table, ptr %74, i32 0, i32 0
  %76 = load i32, ptr %11, align 4, !tbaa !56
  %77 = sext i32 %76 to i64
  %78 = getelementptr [6 x i64], ptr %75, i64 0, i64 %77
  %79 = load i64, ptr %78, align 8, !tbaa !17
  %80 = or i64 %79, %73
  store i64 %80, ptr %78, align 8, !tbaa !17
  br label %81

81:                                               ; preds = %67
  %82 = load i32, ptr %10, align 4, !tbaa !56
  %83 = add i32 %82, 1
  store i32 %83, ptr %10, align 4, !tbaa !56
  br label %46, !llvm.loop !141

84:                                               ; preds = %46
  br label %85

85:                                               ; preds = %84
  %86 = load i32, ptr %11, align 4, !tbaa !56
  %87 = add i32 %86, 1
  store i32 %87, ptr %11, align 4, !tbaa !56
  br label %41, !llvm.loop !142

88:                                               ; preds = %41
  store i32 0, ptr %12, align 4, !tbaa !56
  br label %89

89:                                               ; preds = %170, %88
  %90 = load i32, ptr %12, align 4, !tbaa !56
  %91 = load i32, ptr %8, align 4, !tbaa !56
  %92 = icmp slt i32 %90, %91
  br i1 %92, label %93, label %173

93:                                               ; preds = %89
  call void @llvm.lifetime.start.p0(i64 8, ptr %14) #24
  %94 = load ptr, ptr %9, align 8, !tbaa !140
  %95 = getelementptr inbounds nuw %struct.succ_index_table, ptr %94, i32 0, i32 1
  %96 = load i32, ptr %12, align 4, !tbaa !56
  %97 = sext i32 %96 to i64
  %98 = getelementptr [0 x %struct.succ_dict_block], ptr %95, i64 0, i64 %97
  store ptr %98, ptr %14, align 8, !tbaa !143
  call void @llvm.lifetime.start.p0(i64 4, ptr %15) #24
  store i32 0, ptr %15, align 4, !tbaa !56
  %99 = load i32, ptr %13, align 4, !tbaa !56
  %100 = load ptr, ptr %14, align 8, !tbaa !143
  %101 = getelementptr inbounds nuw %struct.succ_dict_block, ptr %100, i32 0, i32 0
  store i32 %99, ptr %101, align 8, !tbaa !145
  store i32 0, ptr %11, align 4, !tbaa !56
  br label %102

102:                                              ; preds = %166, %93
  %103 = load i32, ptr %11, align 4, !tbaa !56
  %104 = icmp slt i32 %103, 8
  br i1 %104, label %105, label %169

105:                                              ; preds = %102
  call void @llvm.lifetime.start.p0(i64 8, ptr %16) #24
  store i64 0, ptr %16, align 8, !tbaa !17
  %106 = load i32, ptr %11, align 4, !tbaa !56
  %107 = icmp ne i32 %106, 0
  br i1 %107, label %108, label %120

108:                                              ; preds = %105
  %109 = load i32, ptr %15, align 4, !tbaa !56
  %110 = sext i32 %109 to i64
  %111 = load i32, ptr %11, align 4, !tbaa !56
  %112 = sub i32 %111, 1
  %113 = mul i32 9, %112
  %114 = zext i32 %113 to i64
  %115 = shl i64 %110, %114
  %116 = load ptr, ptr %14, align 8, !tbaa !143
  %117 = getelementptr inbounds nuw %struct.succ_dict_block, ptr %116, i32 0, i32 1
  %118 = load i64, ptr %117, align 8, !tbaa !147
  %119 = or i64 %118, %115
  store i64 %119, ptr %117, align 8, !tbaa !147
  br label %120

120:                                              ; preds = %108, %105
  store i32 0, ptr %10, align 4, !tbaa !56
  br label %121

121:                                              ; preds = %152, %120
  %122 = load i32, ptr %10, align 4, !tbaa !56
  %123 = icmp slt i32 %122, 64
  br i1 %123, label %124, label %155

124:                                              ; preds = %121
  %125 = load i32, ptr %13, align 4, !tbaa !56
  %126 = load i32, ptr %6, align 4, !tbaa !56
  %127 = icmp slt i32 %125, %126
  br i1 %127, label %128, label %151

128:                                              ; preds = %124
  %129 = load ptr, ptr %5, align 8, !tbaa !139
  %130 = load i32, ptr %13, align 4, !tbaa !56
  %131 = sext i32 %130 to i64
  %132 = getelementptr i32, ptr %129, i64 %131
  %133 = load i32, ptr %132, align 4, !tbaa !56
  %134 = load i32, ptr %12, align 4, !tbaa !56
  %135 = mul i32 %134, 512
  %136 = load i32, ptr %11, align 4, !tbaa !56
  %137 = mul i32 %136, 64
  %138 = add i32 %135, %137
  %139 = load i32, ptr %10, align 4, !tbaa !56
  %140 = add i32 %138, %139
  %141 = add i32 %140, 54
  %142 = icmp eq i32 %133, %141
  br i1 %142, label %143, label %151

143:                                              ; preds = %128
  %144 = load i32, ptr %10, align 4, !tbaa !56
  %145 = zext i32 %144 to i64
  %146 = shl i64 1, %145
  %147 = load i64, ptr %16, align 8, !tbaa !17
  %148 = or i64 %147, %146
  store i64 %148, ptr %16, align 8, !tbaa !17
  %149 = load i32, ptr %13, align 4, !tbaa !56
  %150 = add i32 %149, 1
  store i32 %150, ptr %13, align 4, !tbaa !56
  br label %151

151:                                              ; preds = %143, %128, %124
  br label %152

152:                                              ; preds = %151
  %153 = load i32, ptr %10, align 4, !tbaa !56
  %154 = add i32 %153, 1
  store i32 %154, ptr %10, align 4, !tbaa !56
  br label %121, !llvm.loop !148

155:                                              ; preds = %121
  %156 = load i64, ptr %16, align 8, !tbaa !17
  %157 = load ptr, ptr %14, align 8, !tbaa !143
  %158 = getelementptr inbounds nuw %struct.succ_dict_block, ptr %157, i32 0, i32 2
  %159 = load i32, ptr %11, align 4, !tbaa !56
  %160 = sext i32 %159 to i64
  %161 = getelementptr [8 x i64], ptr %158, i64 0, i64 %160
  store i64 %156, ptr %161, align 8, !tbaa !17
  %162 = load i64, ptr %16, align 8, !tbaa !17
  %163 = call i32 @rb_popcount64(i64 noundef %162)
  %164 = load i32, ptr %15, align 4, !tbaa !56
  %165 = add i32 %164, %163
  store i32 %165, ptr %15, align 4, !tbaa !56
  call void @llvm.lifetime.end.p0(i64 8, ptr %16) #24
  br label %166

166:                                              ; preds = %155
  %167 = load i32, ptr %11, align 4, !tbaa !56
  %168 = add i32 %167, 1
  store i32 %168, ptr %11, align 4, !tbaa !56
  br label %102, !llvm.loop !149

169:                                              ; preds = %102
  call void @llvm.lifetime.end.p0(i64 4, ptr %15) #24
  call void @llvm.lifetime.end.p0(i64 8, ptr %14) #24
  br label %170

170:                                              ; preds = %169
  %171 = load i32, ptr %12, align 4, !tbaa !56
  %172 = add i32 %171, 1
  store i32 %172, ptr %12, align 4, !tbaa !56
  br label %89, !llvm.loop !150

173:                                              ; preds = %89
  %174 = load ptr, ptr %9, align 8, !tbaa !140
  call void @llvm.lifetime.end.p0(i64 4, ptr %13) #24
  call void @llvm.lifetime.end.p0(i64 4, ptr %12) #24
  call void @llvm.lifetime.end.p0(i64 4, ptr %11) #24
  call void @llvm.lifetime.end.p0(i64 4, ptr %10) #24
  call void @llvm.lifetime.end.p0(i64 8, ptr %9) #24
  call void @llvm.lifetime.end.p0(i64 4, ptr %8) #24
  call void @llvm.lifetime.end.p0(i64 4, ptr %7) #24
  ret ptr %174
}

; Function Attrs: nounwind sspstrong uwtable
define dso_local void @rb_iseq_insns_info_encode_positions(ptr noundef %0) #0 {
  %2 = alloca ptr, align 8
  %3 = alloca ptr, align 8
  %4 = alloca i32, align 4
  %5 = alloca i32, align 4
  %6 = alloca ptr, align 8
  store ptr %0, ptr %2, align 8, !tbaa !7
  call void @llvm.lifetime.start.p0(i64 8, ptr %3) #24
  %7 = load ptr, ptr %2, align 8, !tbaa !7
  %8 = getelementptr inbounds nuw %struct.rb_iseq_struct, ptr %7, i32 0, i32 2
  %9 = load ptr, ptr %8, align 8, !tbaa !12
  store ptr %9, ptr %3, align 8, !tbaa !16
  call void @llvm.lifetime.start.p0(i64 4, ptr %4) #24
  %10 = load ptr, ptr %3, align 8, !tbaa !16
  %11 = getelementptr inbounds nuw %struct.rb_iseq_constant_body, ptr %10, i32 0, i32 5
  %12 = getelementptr inbounds nuw %struct.iseq_insn_info, ptr %11, i32 0, i32 2
  %13 = load i32, ptr %12, align 8, !tbaa !130
  store i32 %13, ptr %4, align 4, !tbaa !56
  call void @llvm.lifetime.start.p0(i64 4, ptr %5) #24
  %14 = load ptr, ptr %3, align 8, !tbaa !16
  %15 = getelementptr inbounds nuw %struct.rb_iseq_constant_body, ptr %14, i32 0, i32 1
  %16 = load i32, ptr %15, align 4, !tbaa !45
  store i32 %16, ptr %5, align 4, !tbaa !56
  call void @llvm.lifetime.start.p0(i64 8, ptr %6) #24
  %17 = load ptr, ptr %3, align 8, !tbaa !16
  %18 = getelementptr inbounds nuw %struct.rb_iseq_constant_body, ptr %17, i32 0, i32 5
  %19 = getelementptr inbounds nuw %struct.iseq_insn_info, ptr %18, i32 0, i32 1
  %20 = load ptr, ptr %19, align 8, !tbaa !39
  store ptr %20, ptr %6, align 8, !tbaa !139
  %21 = load ptr, ptr %3, align 8, !tbaa !16
  %22 = getelementptr inbounds nuw %struct.rb_iseq_constant_body, ptr %21, i32 0, i32 5
  %23 = getelementptr inbounds nuw %struct.iseq_insn_info, ptr %22, i32 0, i32 3
  %24 = load ptr, ptr %23, align 8, !tbaa !40
  %25 = icmp ne ptr %24, null
  br i1 %25, label %26, label %31

26:                                               ; preds = %1
  %27 = load ptr, ptr %3, align 8, !tbaa !16
  %28 = getelementptr inbounds nuw %struct.rb_iseq_constant_body, ptr %27, i32 0, i32 5
  %29 = getelementptr inbounds nuw %struct.iseq_insn_info, ptr %28, i32 0, i32 3
  %30 = load ptr, ptr %29, align 8, !tbaa !40
  call void @ruby_xfree(ptr noundef %30)
  br label %31

31:                                               ; preds = %26, %1
  %32 = load i32, ptr %5, align 4, !tbaa !56
  %33 = load ptr, ptr %6, align 8, !tbaa !139
  %34 = load i32, ptr %4, align 4, !tbaa !56
  %35 = call ptr @succ_index_table_create(i32 noundef %32, ptr noundef %33, i32 noundef %34)
  %36 = load ptr, ptr %3, align 8, !tbaa !16
  %37 = getelementptr inbounds nuw %struct.rb_iseq_constant_body, ptr %36, i32 0, i32 5
  %38 = getelementptr inbounds nuw %struct.iseq_insn_info, ptr %37, i32 0, i32 3
  store ptr %35, ptr %38, align 8, !tbaa !40
  %39 = load ptr, ptr %3, align 8, !tbaa !16
  %40 = getelementptr inbounds nuw %struct.rb_iseq_constant_body, ptr %39, i32 0, i32 5
  %41 = getelementptr inbounds nuw %struct.iseq_insn_info, ptr %40, i32 0, i32 1
  %42 = load ptr, ptr %41, align 8, !tbaa !39
  call void @ruby_xfree(ptr noundef %42)
  %43 = load ptr, ptr %3, align 8, !tbaa !16
  %44 = getelementptr inbounds nuw %struct.rb_iseq_constant_body, ptr %43, i32 0, i32 5
  %45 = getelementptr inbounds nuw %struct.iseq_insn_info, ptr %44, i32 0, i32 1
  store ptr null, ptr %45, align 8, !tbaa !39
  call void @llvm.lifetime.end.p0(i64 8, ptr %6) #24
  call void @llvm.lifetime.end.p0(i64 4, ptr %5) #24
  call void @llvm.lifetime.end.p0(i64 4, ptr %4) #24
  call void @llvm.lifetime.end.p0(i64 8, ptr %3) #24
  ret void
}