; Function Attrs: nounwind sspstrong uwtable
define dso_local void @rb_iseq_insns_info_encode_positions(ptr noundef readonly captures(none) %0) local_unnamed_addr #0 {
  %2 = getelementptr inbounds nuw i8, ptr %0, i64 16
  %3 = load ptr, ptr %2, align 8, !tbaa !7
  %4 = getelementptr inbounds nuw i8, ptr %3, i64 128
  %5 = load i32, ptr %4, align 8, !tbaa !141
  %6 = getelementptr inbounds nuw i8, ptr %3, i64 4
  %7 = load i32, ptr %6, align 4, !tbaa !83
  %8 = getelementptr inbounds nuw i8, ptr %3, i64 120
  %9 = load ptr, ptr %8, align 8, !tbaa !78
  %10 = getelementptr inbounds nuw i8, ptr %3, i64 136
  %11 = load ptr, ptr %10, align 8, !tbaa !79
  %.not = icmp eq ptr %11, null
  br i1 %.not, label %13, label %12

12:                                               ; preds = %1
  tail call void @ruby_xfree(ptr noundef nonnull %11) #20
  br label %13

13:                                               ; preds = %12, %1
  %14 = icmp slt i32 %7, 54
  %15 = add nsw i32 %7, 8
  %16 = sdiv i32 %15, 9
  %17 = select i1 %14, i32 %16, i32 6
  %18 = add nuw i32 %7, 457
  %19 = sdiv i32 %18, 512
  %20 = select i1 %14, i32 0, i32 %19
  %21 = sext i32 %17 to i64
  %22 = sext i32 %20 to i64
  %23 = tail call noalias ptr @rb_xcalloc_mul_add_mul(i64 noundef %21, i64 noundef 8, i64 noundef %22, i64 noundef 80) #20
  %24 = icmp sgt i32 %17, 0
  br i1 %24, label %.preheader60.preheader.i, label %.preheader.i

.preheader60.preheader.i:                         ; preds = %13
  %wide.trip.count.i = zext nneg i32 %17 to i64
  br label %.preheader60.i

.preheader60.i:                                   ; preds = %45, %.preheader60.preheader.i
  %indvars.iv74.i = phi i64 [ 0, %.preheader60.preheader.i ], [ %indvars.iv.next75.i, %45 ]
  %.05564.i = phi i32 [ 0, %.preheader60.preheader.i ], [ %.2.i, %45 ]
  %25 = getelementptr [6 x i64], ptr %23, i64 0, i64 %indvars.iv74.i
  %.promoted.i = load i64, ptr %25, align 8, !tbaa !42
  %26 = mul nuw nsw i64 %indvars.iv74.i, 9
  br label %29

.preheader.i:                                     ; preds = %45, %13
  %.055.lcssa.i = phi i32 [ 0, %13 ], [ %.2.i, %45 ]
  %27 = icmp sgt i32 %20, 0
  br i1 %27, label %.lr.ph.i, label %succ_index_table_create.exit

.lr.ph.i:                                         ; preds = %.preheader.i
  %28 = getelementptr inbounds nuw i8, ptr %23, i64 48
  %wide.trip.count89.i = zext nneg i32 %20 to i64
  br label %46

29:                                               ; preds = %40, %.preheader60.i
  %indvars.iv.i = phi i64 [ 0, %.preheader60.i ], [ %indvars.iv.next.i, %40 ]
  %.15661.i = phi i32 [ %.05564.i, %.preheader60.i ], [ %.2.i, %40 ]
  %30 = phi i64 [ %.promoted.i, %.preheader60.i ], [ %44, %40 ]
  %31 = icmp slt i32 %.15661.i, %5
  br i1 %31, label %32, label %40

32:                                               ; preds = %29
  %33 = sext i32 %.15661.i to i64
  %34 = getelementptr i32, ptr %9, i64 %33
  %35 = load i32, ptr %34, align 4, !tbaa !136
  %36 = add nuw nsw i64 %indvars.iv.i, %26
  %37 = zext i32 %35 to i64
  %38 = icmp eq i64 %36, %37
  %39 = zext i1 %38 to i32
  %spec.select.i = add nsw i32 %.15661.i, %39
  br label %40

40:                                               ; preds = %32, %29
  %.2.i = phi i32 [ %.15661.i, %29 ], [ %spec.select.i, %32 ]
  %41 = sext i32 %.2.i to i64
  %42 = mul nuw nsw i64 %indvars.iv.i, 7
  %43 = shl i64 %41, %42
  %44 = or i64 %43, %30
  %indvars.iv.next.i = add nuw nsw i64 %indvars.iv.i, 1
  %exitcond.not.i = icmp eq i64 %indvars.iv.next.i, 9
  br i1 %exitcond.not.i, label %45, label %29, !llvm.loop !147

45:                                               ; preds = %40
  store i64 %44, ptr %25, align 8, !tbaa !42
  %indvars.iv.next75.i = add nuw nsw i64 %indvars.iv74.i, 1
  %exitcond77.not.i = icmp eq i64 %indvars.iv.next75.i, %wide.trip.count.i
  br i1 %exitcond77.not.i, label %.preheader.i, label %.preheader60.i, !llvm.loop !148

46:                                               ; preds = %82, %.lr.ph.i
  %indvars.iv86.i = phi i64 [ 0, %.lr.ph.i ], [ %indvars.iv.next87.i, %82 ]
  %.372.i = phi i32 [ %.055.lcssa.i, %.lr.ph.i ], [ %.6.i, %82 ]
  %47 = getelementptr [0 x %struct.succ_dict_block], ptr %28, i64 0, i64 %indvars.iv86.i
  store i32 %.372.i, ptr %47, align 8, !tbaa !149
  %48 = shl i64 %indvars.iv86.i, 9
  %49 = or disjoint i64 %48, 54
  %50 = getelementptr inbounds nuw i8, ptr %47, i64 16
  %51 = getelementptr inbounds nuw i8, ptr %47, i64 8
  br label %52

52:                                               ; preds = %77, %46
  %indvars.iv82.i = phi i64 [ 0, %46 ], [ %indvars.iv.next83.i, %77 ]
  %.05270.i = phi i32 [ 0, %46 ], [ %81, %77 ]
  %.469.i = phi i32 [ %.372.i, %46 ], [ %.6.i, %77 ]
  %.not.i = icmp eq i64 %indvars.iv82.i, 0
  br i1 %.not.i, label %60, label %53

53:                                               ; preds = %52
  %54 = sext i32 %.05270.i to i64
  %55 = mul nuw nsw i64 %indvars.iv82.i, 9
  %56 = add nsw i64 %55, -9
  %57 = shl i64 %54, %56
  %58 = load i64, ptr %51, align 8, !tbaa !151
  %59 = or i64 %58, %57
  store i64 %59, ptr %51, align 8, !tbaa !151
  br label %60

60:                                               ; preds = %53, %52
  %61 = shl nuw nsw i64 %indvars.iv82.i, 6
  %62 = add nuw nsw i64 %49, %61
  br label %63

63:                                               ; preds = %76, %60
  %indvars.iv78.i = phi i64 [ 0, %60 ], [ %indvars.iv.next79.i, %76 ]
  %.067.i = phi i64 [ 0, %60 ], [ %.1.i, %76 ]
  %.565.i = phi i32 [ %.469.i, %60 ], [ %.6.i, %76 ]
  %64 = icmp slt i32 %.565.i, %5
  br i1 %64, label %65, label %76

65:                                               ; preds = %63
  %66 = sext i32 %.565.i to i64
  %67 = getelementptr i32, ptr %9, i64 %66
  %68 = load i32, ptr %67, align 4, !tbaa !136
  %69 = add nuw nsw i64 %62, %indvars.iv78.i
  %70 = zext i32 %68 to i64
  %71 = icmp eq i64 %69, %70
  br i1 %71, label %72, label %76

72:                                               ; preds = %65
  %73 = shl nuw i64 1, %indvars.iv78.i
  %74 = or i64 %73, %.067.i
  %75 = add nsw i32 %.565.i, 1
  br label %76

76:                                               ; preds = %72, %65, %63
  %.6.i = phi i32 [ %75, %72 ], [ %.565.i, %65 ], [ %.565.i, %63 ]
  %.1.i = phi i64 [ %74, %72 ], [ %.067.i, %65 ], [ %.067.i, %63 ]
  %indvars.iv.next79.i = add nuw nsw i64 %indvars.iv78.i, 1
  %exitcond81.not.i = icmp eq i64 %indvars.iv.next79.i, 64
  br i1 %exitcond81.not.i, label %77, label %63, !llvm.loop !152

77:                                               ; preds = %76
  %78 = getelementptr [8 x i64], ptr %50, i64 0, i64 %indvars.iv82.i
  store i64 %.1.i, ptr %78, align 8, !tbaa !42
  %79 = tail call range(i64 0, 65) i64 @llvm.ctpop.i64(i64 %.1.i)
  %80 = trunc nuw nsw i64 %79 to i32
  %81 = add i32 %.05270.i, %80
  %indvars.iv.next83.i = add nuw nsw i64 %indvars.iv82.i, 1
  %exitcond85.not.i = icmp eq i64 %indvars.iv.next83.i, 8
  br i1 %exitcond85.not.i, label %82, label %52, !llvm.loop !153

82:                                               ; preds = %77
  %indvars.iv.next87.i = add nuw nsw i64 %indvars.iv86.i, 1
  %exitcond90.not.i = icmp eq i64 %indvars.iv.next87.i, %wide.trip.count89.i
  br i1 %exitcond90.not.i, label %succ_index_table_create.exit, label %46, !llvm.loop !154

succ_index_table_create.exit:                     ; preds = %82, %.preheader.i
  store ptr %23, ptr %10, align 8, !tbaa !79
  %83 = load ptr, ptr %8, align 8, !tbaa !78
  tail call void @ruby_xfree(ptr noundef %83) #20
  store ptr null, ptr %8, align 8, !tbaa !78
  ret void
}